target datalayout = "e-m:e-p270:32:32-p271:32:32-p272:64:64-i64:64-i128:128-f80:128-n8:16:32:64-S128"
target triple = "x86_64-pc-linux-gnu"

@.str.94 = private unnamed_addr constant [6 x i8] c"%s/%s\00", align 1
@.str.106 = private unnamed_addr constant [29 x i8] c"could not open file \22%s\22: %m\00", align 1

; Function Attrs: nounwind uwtable
define internal i32 @open_file_in_directory(ptr noundef %0, ptr noundef %1) #0 {
  %3 = alloca ptr, align 8
  %4 = alloca ptr, align 8
  %5 = alloca i32, align 4
  %6 = alloca [1024 x i8], align 16
  store ptr %0, ptr %3, align 8
  store ptr %1, ptr %4, align 8
  call void @llvm.lifetime.start.p0(i64 4, ptr %5) #10
  store i32 -1, ptr %5, align 4
  call void @llvm.lifetime.start.p0(i64 1024, ptr %6) #10
  %7 = getelementptr inbounds [1024 x i8], ptr %6, i64 0, i64 0
  %8 = load ptr, ptr %3, align 8
  %9 = load ptr, ptr %4, align 8
  %10 = call i32 (ptr, i64, ptr, ...) @pg_snprintf(ptr noundef %7, i64 noundef 1024, ptr noundef @.str.94, ptr noundef %8, ptr noundef %9)
  %11 = getelementptr inbounds [1024 x i8], ptr %6, i64 0, i64 0
  %12 = call i32 (ptr, i32, ...) @open(ptr noundef %11, i32 noundef 0, i32 noundef 0)
  store i32 %12, ptr %5, align 4
  %13 = load i32, ptr %5, align 4
  %14 = icmp slt i32 %13, 0
  br i1 %14, label %15, label %24

15:                                               ; preds = %2
  %16 = call ptr @__errno_location() #13
  %17 = load i32, ptr %16, align 4
  %18 = icmp ne i32 %17, 2
  br i1 %18, label %19, label %24

19:                                               ; preds = %15
  br label %20

20:                                               ; preds = %19
  %21 = load ptr, ptr %4, align 8
  call void (i32, i32, ptr, ...) @pg_log_generic(i32 noundef 4, i32 noundef 0, ptr noundef @.str.106, ptr noundef %21)
  call void @exit(i32 noundef 1) #12
  unreachable

22:                                               ; No predecessors!
  br label %23

23:                                               ; preds = %22
  br label %24

24:                                               ; preds = %23, %15, %2
  %25 = load i32, ptr %5, align 4
  call void @llvm.lifetime.end.p0(i64 1024, ptr %6) #10
  call void @llvm.lifetime.end.p0(i64 4, ptr %5) #10
  ret i32 %25
}