; Function Attrs: nounwind uwtable
define internal fastcc noundef i32 @open_file_in_directory(ptr noundef %0, ptr noundef %1) unnamed_addr #0 {
  %3 = alloca [1024 x i8], align 16
  call void @llvm.lifetime.start.p0(i64 1024, ptr nonnull %3) #16
  %4 = call i32 (ptr, i64, ptr, ...) @pg_snprintf(ptr noundef nonnull %3, i64 noundef 1024, ptr noundef nonnull @.str.94, ptr noundef %0, ptr noundef %1) #16
  %5 = call i32 (ptr, i32, ...) @open(ptr noundef nonnull %3, i32 noundef 0, i32 noundef 0) #16
  %6 = icmp slt i32 %5, 0
  br i1 %6, label %7, label %11

7:                                                ; preds = %2
  %8 = tail call ptr @__errno_location() #19
  %9 = load i32, ptr %8, align 4
  %.not = icmp eq i32 %9, 2
  br i1 %.not, label %11, label %10

10:                                               ; preds = %7
  call void (i32, i32, ptr, ...) @pg_log_generic(i32 noundef 4, i32 noundef 0, ptr noundef nonnull @.str.106, ptr noundef %1) #16
  call void @exit(i32 noundef 1) #20
  unreachable

11:                                               ; preds = %7, %2
  call void @llvm.lifetime.end.p0(i64 1024, ptr nonnull %3) #16
  ret i32 %5
}